target datalayout = "e-m:e-p270:32:32-p271:32:32-p272:64:64-i64:64-i128:128-f80:128-n8:16:32:64-S128"
target triple = "x86_64-unknown-linux-gnu"

%"class.node::tracing::InternalTraceBuffer" = type { %"class.node::MutexBase", i8, i64, ptr, %"class.std::vector", i64, i32, i32 }
%"class.node::MutexBase" = type { %union.pthread_mutex_t }
%union.pthread_mutex_t = type { %struct.__pthread_mutex_s }
%struct.__pthread_mutex_s = type { i32, i32, i32, i32, i32, i16, i16, %struct.__pthread_internal_list }
%struct.__pthread_internal_list = type { ptr, ptr }
%"class.std::vector" = type { %"struct.std::_Vector_base" }
%"struct.std::_Vector_base" = type { %"struct.std::_Vector_base<std::unique_ptr<v8::platform::tracing::TraceBufferChunk>, std::allocator<std::unique_ptr<v8::platform::tracing::TraceBufferChunk>>>::_Vector_impl" }
%"struct.std::_Vector_base<std::unique_ptr<v8::platform::tracing::TraceBufferChunk>, std::allocator<std::unique_ptr<v8::platform::tracing::TraceBufferChunk>>>::_Vector_impl" = type { %"struct.std::_Vector_base<std::unique_ptr<v8::platform::tracing::TraceBufferChunk>, std::allocator<std::unique_ptr<v8::platform::tracing::TraceBufferChunk>>>::_Vector_impl_data" }
%"struct.std::_Vector_base<std::unique_ptr<v8::platform::tracing::TraceBufferChunk>, std::allocator<std::unique_ptr<v8::platform::tracing::TraceBufferChunk>>>::_Vector_impl_data" = type { ptr, ptr, ptr }
%"class.std::unique_ptr.2" = type { %"struct.std::__uniq_ptr_data.3" }
%"struct.std::__uniq_ptr_data.3" = type { %"class.std::__uniq_ptr_impl.4" }
%"class.std::__uniq_ptr_impl.4" = type { %"class.std::tuple.5" }
%"class.std::tuple.5" = type { %"struct.std::_Tuple_impl.6" }
%"struct.std::_Tuple_impl.6" = type { %"struct.std::_Head_base.9" }
%"struct.std::_Head_base.9" = type { ptr }
%"class.node::MutexBase<node::LibuvMutexTraits>::ScopedLock" = type { ptr }
%"class.v8::platform::tracing::TraceBufferChunk" = type <{ i64, [64 x %"class.v8::platform::tracing::TraceObject"], i32, [4 x i8] }>
%"class.v8::platform::tracing::TraceObject" = type { i32, i32, i8, ptr, ptr, ptr, i64, i64, i32, [2 x ptr], [2 x i8], [2 x %"union.v8::platform::tracing::TraceObject::ArgValue"], [2 x %"class.std::unique_ptr"], ptr, i32, i64, i64, i64, i64 }
%"union.v8::platform::tracing::TraceObject::ArgValue" = type { i64 }
%"class.std::unique_ptr" = type { %"struct.std::__uniq_ptr_data" }
%"struct.std::__uniq_ptr_data" = type { %"class.std::__uniq_ptr_impl" }
%"class.std::__uniq_ptr_impl" = type { %"class.std::tuple" }
%"class.std::tuple" = type { %"struct.std::_Tuple_impl" }
%"struct.std::_Tuple_impl" = type { %"struct.std::_Head_base.1" }
%"struct.std::_Head_base.1" = type { ptr }

; Function Attrs: mustprogress nounwind uwtable
define linkonce_odr dso_local noundef nonnull align 8 dereferenceable(8) ptr @_ZNSt10_Head_baseILm0EPN2v88platform7tracing16TraceBufferChunkELb0EE7_M_headERKS5_(ptr noundef nonnull align 8 dereferenceable(8) %__b) #0 comdat align 2 {
entry:
  %__b.addr = alloca ptr, align 8
  store ptr %__b, ptr %__b.addr, align 8
  %0 = load ptr, ptr %__b.addr, align 8
  %_M_head_impl = getelementptr inbounds %"struct.std::_Head_base.9", ptr %0, i32 0, i32 0
  ret ptr %_M_head_impl
}

; Function Attrs: mustprogress nounwind uwtable
define linkonce_odr dso_local noundef nonnull align 8 dereferenceable(8) ptr @_ZNSt11_Tuple_implILm0EJPN2v88platform7tracing16TraceBufferChunkESt14default_deleteIS3_EEE7_M_headERKS7_(ptr noundef nonnull align 8 dereferenceable(8) %__t) #0 comdat align 2 {
entry:
  %__t.addr = alloca ptr, align 8
  store ptr %__t, ptr %__t.addr, align 8
  %0 = load ptr, ptr %__t.addr, align 8
  %call = call noundef nonnull align 8 dereferenceable(8) ptr @_ZNSt10_Head_baseILm0EPN2v88platform7tracing16TraceBufferChunkELb0EE7_M_headERKS5_(ptr noundef nonnull align 8 dereferenceable(8) %0) #10
  ret ptr %call
}

; Function Attrs: mustprogress nounwind uwtable
define linkonce_odr dso_local noundef nonnull align 8 dereferenceable(8) ptr @_ZSt12__get_helperILm0EPN2v88platform7tracing16TraceBufferChunkEJSt14default_deleteIS3_EEERKT0_RKSt11_Tuple_implIXT_EJS7_DpT1_EE(ptr noundef nonnull align 8 dereferenceable(8) %__t) #0 comdat {
entry:
  %__t.addr = alloca ptr, align 8
  store ptr %__t, ptr %__t.addr, align 8
  %0 = load ptr, ptr %__t.addr, align 8
  %call = call noundef nonnull align 8 dereferenceable(8) ptr @_ZNSt11_Tuple_implILm0EJPN2v88platform7tracing16TraceBufferChunkESt14default_deleteIS3_EEE7_M_headERKS7_(ptr noundef nonnull align 8 dereferenceable(8) %0) #10
  ret ptr %call
}

; Function Attrs: mustprogress nounwind uwtable
define linkonce_odr dso_local noundef nonnull align 8 dereferenceable(8) ptr @_ZSt3getILm0EJPN2v88platform7tracing16TraceBufferChunkESt14default_deleteIS3_EEERKNSt13tuple_elementIXT_ESt5tupleIJDpT0_EEE4typeERKSB_(ptr noundef nonnull align 8 dereferenceable(8) %__t) #0 comdat {
entry:
  %__t.addr = alloca ptr, align 8
  store ptr %__t, ptr %__t.addr, align 8
  %0 = load ptr, ptr %__t.addr, align 8
  %call = call noundef nonnull align 8 dereferenceable(8) ptr @_ZSt12__get_helperILm0EPN2v88platform7tracing16TraceBufferChunkEJSt14default_deleteIS3_EEERKT0_RKSt11_Tuple_implIXT_EJS7_DpT1_EE(ptr noundef nonnull align 8 dereferenceable(8) %0) #10
  ret ptr %call
}

; Function Attrs: mustprogress nounwind uwtable
define linkonce_odr dso_local noundef ptr @_ZNKSt15__uniq_ptr_implIN2v88platform7tracing16TraceBufferChunkESt14default_deleteIS3_EE6_M_ptrEv(ptr noundef nonnull align 8 dereferenceable(8) %this) #0 comdat align 2 {
entry:
  %this.addr = alloca ptr, align 8
  store ptr %this, ptr %this.addr, align 8
  %this1 = load ptr, ptr %this.addr, align 8
  %_M_t = getelementptr inbounds %"class.std::__uniq_ptr_impl.4", ptr %this1, i32 0, i32 0
  %call = call noundef nonnull align 8 dereferenceable(8) ptr @_ZSt3getILm0EJPN2v88platform7tracing16TraceBufferChunkESt14default_deleteIS3_EEERKNSt13tuple_elementIXT_ESt5tupleIJDpT0_EEE4typeERKSB_(ptr noundef nonnull align 8 dereferenceable(8) %_M_t) #10
  %0 = load ptr, ptr %call, align 8
  ret ptr %0
}

; Function Attrs: mustprogress nounwind uwtable
define linkonce_odr dso_local void @_ZN4node16LibuvMutexTraits12mutex_unlockEP15pthread_mutex_t(ptr noundef %mutex) #0 comdat align 2 {
entry:
  %mutex.addr = alloca ptr, align 8
  store ptr %mutex, ptr %mutex.addr, align 8
  %0 = load ptr, ptr %mutex.addr, align 8
  call void @uv_mutex_unlock(ptr noundef %0)
  ret void
}

; Function Attrs: mustprogress nounwind uwtable
define linkonce_odr dso_local noundef ptr @_ZNKSt10unique_ptrIN2v88platform7tracing16TraceBufferChunkESt14default_deleteIS3_EE3getEv(ptr noundef nonnull align 8 dereferenceable(8) %this) #0 comdat align 2 {
entry:
  %this.addr = alloca ptr, align 8
  store ptr %this, ptr %this.addr, align 8
  %this1 = load ptr, ptr %this.addr, align 8
  %_M_t = getelementptr inbounds %"class.std::unique_ptr.2", ptr %this1, i32 0, i32 0
  %call = call noundef ptr @_ZNKSt15__uniq_ptr_implIN2v88platform7tracing16TraceBufferChunkESt14default_deleteIS3_EE6_M_ptrEv(ptr noundef nonnull align 8 dereferenceable(8) %_M_t) #10
  ret ptr %call
}

; Function Attrs: mustprogress nounwind uwtable
define linkonce_odr dso_local noundef i64 @_ZNK4node7tracing19InternalTraceBuffer8CapacityEv(ptr noundef nonnull align 8 dereferenceable(104) %this) #0 comdat align 2 {
entry:
  %this.addr = alloca ptr, align 8
  store ptr %this, ptr %this.addr, align 8
  %this1 = load ptr, ptr %this.addr, align 8
  %max_chunks_ = getelementptr inbounds %"class.node::tracing::InternalTraceBuffer", ptr %this1, i32 0, i32 2
  %0 = load i64, ptr %max_chunks_, align 8
  %mul = mul i64 %0, 64
  ret i64 %mul
}

; Function Attrs: mustprogress nounwind uwtable
define linkonce_odr dso_local void @_ZN4node16LibuvMutexTraits10mutex_lockEP15pthread_mutex_t(ptr noundef %mutex) #0 comdat align 2 {
entry:
  %mutex.addr = alloca ptr, align 8
  store ptr %mutex, ptr %mutex.addr, align 8
  %0 = load ptr, ptr %mutex.addr, align 8
  call void @uv_mutex_lock(ptr noundef %0)
  ret void
}

; Function Attrs: mustprogress nounwind uwtable
define linkonce_odr dso_local void @_ZN4node9MutexBaseINS_16LibuvMutexTraitsEE10ScopedLockD2Ev(ptr noundef nonnull align 8 dereferenceable(8) %this) unnamed_addr #0 comdat align 2 {
entry:
  %this.addr = alloca ptr, align 8
  store ptr %this, ptr %this.addr, align 8
  %this1 = load ptr, ptr %this.addr, align 8
  %mutex_ = getelementptr inbounds %"class.node::MutexBase<node::LibuvMutexTraits>::ScopedLock", ptr %this1, i32 0, i32 0
  %0 = load ptr, ptr %mutex_, align 8
  %mutex_2 = getelementptr inbounds %"class.node::MutexBase", ptr %0, i32 0, i32 0
  call void @_ZN4node16LibuvMutexTraits12mutex_unlockEP15pthread_mutex_t(ptr noundef %mutex_2)
  ret void
}

; Function Attrs: mustprogress nounwind uwtable
define linkonce_odr dso_local noundef ptr @_ZN2v88platform7tracing16TraceBufferChunk10GetEventAtEm(ptr noundef nonnull align 8 dereferenceable(10764) %this, i64 noundef %index) #0 comdat align 2 {
entry:
  %this.addr = alloca ptr, align 8
  %index.addr = alloca i64, align 8
  store ptr %this, ptr %this.addr, align 8
  store i64 %index, ptr %index.addr, align 8
  %this1 = load ptr, ptr %this.addr, align 8
  %chunk_ = getelementptr inbounds %"class.v8::platform::tracing::TraceBufferChunk", ptr %this1, i32 0, i32 1
  %0 = load i64, ptr %index.addr, align 8
  %arrayidx = getelementptr inbounds [64 x %"class.v8::platform::tracing::TraceObject"], ptr %chunk_, i64 0, i64 %0
  ret ptr %arrayidx
}

; Function Attrs: mustprogress nounwind uwtable
define linkonce_odr dso_local noundef i32 @_ZNK2v88platform7tracing16TraceBufferChunk3seqEv(ptr noundef nonnull align 8 dereferenceable(10764) %this) #0 comdat align 2 {
entry:
  %this.addr = alloca ptr, align 8
  store ptr %this, ptr %this.addr, align 8
  %this1 = load ptr, ptr %this.addr, align 8
  %seq_ = getelementptr inbounds %"class.v8::platform::tracing::TraceBufferChunk", ptr %this1, i32 0, i32 2
  %0 = load i32, ptr %seq_, align 8
  ret i32 %0
}

; Function Attrs: mustprogress nounwind uwtable
define linkonce_odr dso_local noundef ptr @_ZNKSt10unique_ptrIN2v88platform7tracing16TraceBufferChunkESt14default_deleteIS3_EEptEv(ptr noundef nonnull align 8 dereferenceable(8) %this) #0 comdat align 2 {
entry:
  %this.addr = alloca ptr, align 8
  store ptr %this, ptr %this.addr, align 8
  %this1 = load ptr, ptr %this.addr, align 8
  %call = call noundef ptr @_ZNKSt10unique_ptrIN2v88platform7tracing16TraceBufferChunkESt14default_deleteIS3_EE3getEv(ptr noundef nonnull align 8 dereferenceable(8) %this1) #10
  ret ptr %call
}

; Function Attrs: mustprogress nounwind uwtable
define linkonce_odr dso_local noundef nonnull align 8 dereferenceable(8) ptr @_ZNSt6vectorISt10unique_ptrIN2v88platform7tracing16TraceBufferChunkESt14default_deleteIS4_EESaIS7_EEixEm(ptr noundef nonnull align 8 dereferenceable(24) %this, i64 noundef %__n) #0 comdat align 2 {
entry:
  %this.addr = alloca ptr, align 8
  %__n.addr = alloca i64, align 8
  store ptr %this, ptr %this.addr, align 8
  store i64 %__n, ptr %__n.addr, align 8
  %this1 = load ptr, ptr %this.addr, align 8
  %_M_impl = getelementptr inbounds %"struct.std::_Vector_base", ptr %this1, i32 0, i32 0
  %_M_start = getelementptr inbounds %"struct.std::_Vector_base<std::unique_ptr<v8::platform::tracing::TraceBufferChunk>, std::allocator<std::unique_ptr<v8::platform::tracing::TraceBufferChunk>>>::_Vector_impl_data", ptr %_M_impl, i32 0, i32 0
  %0 = load ptr, ptr %_M_start, align 8
  %1 = load i64, ptr %__n.addr, align 8
  %add.ptr = getelementptr inbounds %"class.std::unique_ptr.2", ptr %0, i64 %1
  ret ptr %add.ptr
}

; Function Attrs: mustprogress nounwind uwtable
define dso_local void @_ZNK4node7tracing19InternalTraceBuffer13ExtractHandleEmPjPmS2_S3_(ptr noundef nonnull align 8 dereferenceable(104) %this, i64 noundef %handle, ptr noundef %buffer_id, ptr noundef %chunk_index, ptr noundef %chunk_seq, ptr noundef %event_index) #0 align 2 {
entry:
  %this.addr = alloca ptr, align 8
  %handle.addr = alloca i64, align 8
  %buffer_id.addr = alloca ptr, align 8
  %chunk_index.addr = alloca ptr, align 8
  %chunk_seq.addr = alloca ptr, align 8
  %event_index.addr = alloca ptr, align 8
  %indices = alloca i64, align 8
  store ptr %this, ptr %this.addr, align 8
  store i64 %handle, ptr %handle.addr, align 8
  store ptr %buffer_id, ptr %buffer_id.addr, align 8
  store ptr %chunk_index, ptr %chunk_index.addr, align 8
  store ptr %chunk_seq, ptr %chunk_seq.addr, align 8
  store ptr %event_index, ptr %event_index.addr, align 8
  %this1 = load ptr, ptr %this.addr, align 8
  %0 = load i64, ptr %handle.addr, align 8
  %and = and i64 %0, 1
  %conv = trunc i64 %and to i32
  %1 = load ptr, ptr %buffer_id.addr, align 8
  store i32 %conv, ptr %1, align 4
  %2 = load i64, ptr %handle.addr, align 8
  %shr = lshr i64 %2, 1
  store i64 %shr, ptr %handle.addr, align 8
  %3 = load i64, ptr %handle.addr, align 8
  %call = call noundef i64 @_ZNK4node7tracing19InternalTraceBuffer8CapacityEv(ptr noundef nonnull align 8 dereferenceable(104) %this1)
  %div = udiv i64 %3, %call
  %conv2 = trunc i64 %div to i32
  %4 = load ptr, ptr %chunk_seq.addr, align 8
  store i32 %conv2, ptr %4, align 4
  %5 = load i64, ptr %handle.addr, align 8
  %call3 = call noundef i64 @_ZNK4node7tracing19InternalTraceBuffer8CapacityEv(ptr noundef nonnull align 8 dereferenceable(104) %this1)
  %rem = urem i64 %5, %call3
  store i64 %rem, ptr %indices, align 8
  %6 = load i64, ptr %indices, align 8
  %div4 = udiv i64 %6, 64
  %7 = load ptr, ptr %chunk_index.addr, align 8
  store i64 %div4, ptr %7, align 8
  %8 = load i64, ptr %indices, align 8
  %rem5 = urem i64 %8, 64
  %9 = load ptr, ptr %event_index.addr, align 8
  store i64 %rem5, ptr %9, align 8
  ret void
}

; Function Attrs: mustprogress nounwind uwtable
define linkonce_odr dso_local void @_ZN4node9MutexBaseINS_16LibuvMutexTraitsEE10ScopedLockC2ERKS2_(ptr noundef nonnull align 8 dereferenceable(8) %this, ptr noundef nonnull align 8 dereferenceable(40) %mutex) unnamed_addr #0 comdat align 2 {
entry:
  %this.addr = alloca ptr, align 8
  %mutex.addr = alloca ptr, align 8
  store ptr %this, ptr %this.addr, align 8
  store ptr %mutex, ptr %mutex.addr, align 8
  %this1 = load ptr, ptr %this.addr, align 8
  %mutex_ = getelementptr inbounds %"class.node::MutexBase<node::LibuvMutexTraits>::ScopedLock", ptr %this1, i32 0, i32 0
  %0 = load ptr, ptr %mutex.addr, align 8
  store ptr %0, ptr %mutex_, align 8
  %mutex_2 = getelementptr inbounds %"class.node::MutexBase<node::LibuvMutexTraits>::ScopedLock", ptr %this1, i32 0, i32 0
  %1 = load ptr, ptr %mutex_2, align 8
  %mutex_3 = getelementptr inbounds %"class.node::MutexBase", ptr %1, i32 0, i32 0
  call void @_ZN4node16LibuvMutexTraits10mutex_lockEP15pthread_mutex_t(ptr noundef %mutex_3)
  ret void
}

; Function Attrs: mustprogress nounwind uwtable
define dso_local noundef ptr @_ZN4node7tracing19InternalTraceBuffer16GetEventByHandleEm(ptr noundef nonnull align 8 dereferenceable(104) %this, i64 noundef %handle) #0 align 2 {
entry:
  %retval = alloca ptr, align 8
  %this.addr = alloca ptr, align 8
  %handle.addr = alloca i64, align 8
  %scoped_lock = alloca %"class.node::MutexBase<node::LibuvMutexTraits>::ScopedLock", align 8
  %cleanup.dest.slot = alloca i32, align 4
  %chunk_index = alloca i64, align 8
  %event_index = alloca i64, align 8
  %buffer_id = alloca i32, align 4
  %chunk_seq = alloca i32, align 4
  %chunk = alloca ptr, align 8
  store ptr %this, ptr %this.addr, align 8
  store i64 %handle, ptr %handle.addr, align 8
  %this1 = load ptr, ptr %this.addr, align 8
  %mutex_ = getelementptr inbounds %"class.node::tracing::InternalTraceBuffer", ptr %this1, i32 0, i32 0
  call void @_ZN4node9MutexBaseINS_16LibuvMutexTraitsEE10ScopedLockC2ERKS2_(ptr noundef nonnull align 8 dereferenceable(8) %scoped_lock, ptr noundef nonnull align 8 dereferenceable(40) %mutex_)
  %0 = load i64, ptr %handle.addr, align 8
  %cmp = icmp eq i64 %0, 0
  br i1 %cmp, label %if.then, label %if.end

if.then:                                          ; preds = %entry
  store ptr null, ptr %retval, align 8
  store i32 1, ptr %cleanup.dest.slot, align 4
  br label %cleanup

if.end:                                           ; preds = %entry
  %1 = load i64, ptr %handle.addr, align 8
  call void @_ZNK4node7tracing19InternalTraceBuffer13ExtractHandleEmPjPmS2_S3_(ptr noundef nonnull align 8 dereferenceable(104) %this1, i64 noundef %1, ptr noundef %buffer_id, ptr noundef %chunk_index, ptr noundef %chunk_seq, ptr noundef %event_index)
  %2 = load i32, ptr %buffer_id, align 4
  %id_ = getelementptr inbounds %"class.node::tracing::InternalTraceBuffer", ptr %this1, i32 0, i32 7
  %3 = load i32, ptr %id_, align 4
  %cmp2 = icmp ne i32 %2, %3
  br i1 %cmp2, label %if.then4, label %lor.lhs.false

lor.lhs.false:                                    ; preds = %if.end
  %4 = load i64, ptr %chunk_index, align 8
  %total_chunks_ = getelementptr inbounds %"class.node::tracing::InternalTraceBuffer", ptr %this1, i32 0, i32 5
  %5 = load i64, ptr %total_chunks_, align 8
  %cmp3 = icmp uge i64 %4, %5
  br i1 %cmp3, label %if.then4, label %if.end5

if.then4:                                         ; preds = %lor.lhs.false, %if.end
  store ptr null, ptr %retval, align 8
  store i32 1, ptr %cleanup.dest.slot, align 4
  br label %cleanup

if.end5:                                          ; preds = %lor.lhs.false
  %chunks_ = getelementptr inbounds %"class.node::tracing::InternalTraceBuffer", ptr %this1, i32 0, i32 4
  %6 = load i64, ptr %chunk_index, align 8
  %call = call noundef nonnull align 8 dereferenceable(8) ptr @_ZNSt6vectorISt10unique_ptrIN2v88platform7tracing16TraceBufferChunkESt14default_deleteIS4_EESaIS7_EEixEm(ptr noundef nonnull align 8 dereferenceable(24) %chunks_, i64 noundef %6) #10
  store ptr %call, ptr %chunk, align 8
  %7 = load ptr, ptr %chunk, align 8
  %call6 = call noundef ptr @_ZNKSt10unique_ptrIN2v88platform7tracing16TraceBufferChunkESt14default_deleteIS3_EEptEv(ptr noundef nonnull align 8 dereferenceable(8) %7) #10
  %call7 = call noundef i32 @_ZNK2v88platform7tracing16TraceBufferChunk3seqEv(ptr noundef nonnull align 8 dereferenceable(10764) %call6)
  %8 = load i32, ptr %chunk_seq, align 4
  %cmp8 = icmp ne i32 %call7, %8
  br i1 %cmp8, label %if.then9, label %if.end10

if.then9:                                         ; preds = %if.end5
  store ptr null, ptr %retval, align 8
  store i32 1, ptr %cleanup.dest.slot, align 4
  br label %cleanup

if.end10:                                         ; preds = %if.end5
  %9 = load ptr, ptr %chunk, align 8
  %call11 = call noundef ptr @_ZNKSt10unique_ptrIN2v88platform7tracing16TraceBufferChunkESt14default_deleteIS3_EEptEv(ptr noundef nonnull align 8 dereferenceable(8) %9) #10
  %10 = load i64, ptr %event_index, align 8
  %call12 = call noundef ptr @_ZN2v88platform7tracing16TraceBufferChunk10GetEventAtEm(ptr noundef nonnull align 8 dereferenceable(10764) %call11, i64 noundef %10)
  store ptr %call12, ptr %retval, align 8
  store i32 1, ptr %cleanup.dest.slot, align 4
  br label %cleanup

cleanup:                                          ; preds = %if.end10, %if.then9, %if.then4, %if.then
  call void @_ZN4node9MutexBaseINS_16LibuvMutexTraitsEE10ScopedLockD2Ev(ptr noundef nonnull align 8 dereferenceable(8) %scoped_lock) #10
  %11 = load ptr, ptr %retval, align 8
  ret ptr %11
}