; Function Attrs: mustprogress nounwind uwtable
define dso_local noundef ptr @_ZN4node7tracing19InternalTraceBuffer16GetEventByHandleEm(ptr noundef nonnull align 8 dereferenceable(104) %this, i64 noundef %handle) local_unnamed_addr #0 align 2 {
entry:
  tail call void @uv_mutex_lock(ptr noundef nonnull %this) #13
  %cmp = icmp eq i64 %handle, 0
  br i1 %cmp, label %cleanup, label %if.end

if.end:                                           ; preds = %entry
  %0 = trunc i64 %handle to i32
  %conv.i = and i32 %0, 1
  %shr.i = lshr i64 %handle, 1
  %max_chunks_.i.i = getelementptr inbounds i8, ptr %this, i64 48
  %1 = load i64, ptr %max_chunks_.i.i, align 8
  %mul.i.i = shl i64 %1, 6
  %rem.i = urem i64 %shr.i, %mul.i.i
  %div.i = udiv i64 %shr.i, %mul.i.i
  %div45.i = lshr i64 %rem.i, 6
  %rem5.i = and i64 %rem.i, 63
  %id_ = getelementptr inbounds i8, ptr %this, i64 100
  %2 = load i32, ptr %id_, align 4
  %cmp2.not = icmp eq i32 %conv.i, %2
  %total_chunks_ = getelementptr inbounds i8, ptr %this, i64 88
  %3 = load i64, ptr %total_chunks_, align 8
  %cmp3.not = icmp ult i64 %div45.i, %3
  %or.cond = select i1 %cmp2.not, i1 %cmp3.not, i1 false
  br i1 %or.cond, label %if.end5, label %cleanup

if.end5:                                          ; preds = %if.end
  %conv2.i = trunc i64 %div.i to i32
  %chunks_ = getelementptr inbounds i8, ptr %this, i64 64
  %4 = load ptr, ptr %chunks_, align 8
  %add.ptr.i = getelementptr inbounds %"class.std::unique_ptr.2", ptr %4, i64 %div45.i
  %5 = load ptr, ptr %add.ptr.i, align 8
  %seq_.i = getelementptr inbounds i8, ptr %5, i64 10760
  %6 = load i32, ptr %seq_.i, align 8
  %cmp8.not = icmp eq i32 %6, %conv2.i
  br i1 %cmp8.not, label %if.end10, label %cleanup

if.end10:                                         ; preds = %if.end5
  %chunk_.i = getelementptr inbounds i8, ptr %5, i64 8
  %arrayidx.i = getelementptr inbounds [64 x %"class.v8::platform::tracing::TraceObject"], ptr %chunk_.i, i64 0, i64 %rem5.i
  br label %cleanup

cleanup:                                          ; preds = %if.end5, %if.end, %entry, %if.end10
  %retval.0 = phi ptr [ %arrayidx.i, %if.end10 ], [ null, %entry ], [ null, %if.end ], [ null, %if.end5 ]
  tail call void @uv_mutex_unlock(ptr noundef nonnull %this) #13
  ret ptr %retval.0
}